#include <math.h>
#include <stdio.h>
#include <stdlib.h>
#include <string.h>
#include <iostream>
using namespace std;

//???????
//??
//???????????????????????????????????
//????
//??????????????????
//????
//???????
//????
//Hello      world.This is    c language.
//????
//Hello world.This is c language.
int main()
{
    int i,m=0;

	char c[1000],jg[1000];//??????
	cin.getline(c,1000);
    for(i=0;c[i]!='\0';i++)//???????
    {
    	if(c[i]!=' ')//???i?????
		{
			jg[m]=c[i];//????m?jg?
			m++;//m???????????????
		}
		else if(c[i]==' ' && c[i+1]!=' ')//??????
		{
			jg[m]=c[i];
			m++;
		}
	}
	jg[m]='\0';
	int t=strlen(jg);
	for(m=0;m<t;m++)
		{
			cout<<jg[m];
		}
    return 0;
}
